; Function Attrs: mustprogress uwtable
define noundef range(i32 -3, 2) i32 @_ZN10open_spiel16nine_mens_morris13StateToPlayerENS0_9CellStateE(i32 noundef %0) local_unnamed_addr #3 personality ptr @__gxx_personality_v0 {
  %2 = alloca %"class.std::__cxx11::basic_string", align 8
  %3 = alloca %"class.std::allocator", align 1
  %4 = icmp ult i32 %0, 3
  br i1 %4, label %switch.lookup, label %5

5:                                                ; preds = %1
  call void @_ZNSaIcEC1Ev(ptr noundef nonnull align 1 dereferenceable(1) %3) #26
  invoke void @_ZNSt7__cxx1112basic_stringIcSt11char_traitsIcESaIcEEC2IS3_EEPKcRKS3_(ptr noundef nonnull align 8 dereferenceable(32) %2, ptr noundef nonnull @.str.8, ptr noundef nonnull align 1 dereferenceable(1) %3)
          to label %6 unwind label %8

6:                                                ; preds = %5
  invoke void @_ZN10open_spiel15SpielFatalErrorERKNSt7__cxx1112basic_stringIcSt11char_traitsIcESaIcEEE(ptr noundef nonnull align 8 dereferenceable(32) %2) #25
          to label %7 unwind label %10

7:                                                ; preds = %6
  unreachable

8:                                                ; preds = %5
  %9 = landingpad { ptr, i32 }
          cleanup
  br label %12

10:                                               ; preds = %6
  %11 = landingpad { ptr, i32 }
          cleanup
  call void @_ZNSt7__cxx1112basic_stringIcSt11char_traitsIcESaIcEED1Ev(ptr noundef nonnull align 8 dereferenceable(32) %2) #26
  br label %12

12:                                               ; preds = %10, %8
  %.pn = phi { ptr, i32 } [ %11, %10 ], [ %9, %8 ]
  call void @_ZNSaIcED1Ev(ptr noundef nonnull align 1 dereferenceable(1) %3) #26
  resume { ptr, i32 } %.pn

switch.lookup:                                    ; preds = %1
  %13 = zext nneg i32 %0 to i64
  %switch.gep = getelementptr inbounds [3 x i32], ptr @switch.table._ZN10open_spiel16nine_mens_morris19NineMensMorrisState13DoApplyActionEl, i64 0, i64 %13
  %switch.load = load i32, ptr %switch.gep, align 4
  ret i32 %switch.load
}